target datalayout = "e-m:e-p270:32:32-p271:32:32-p272:64:64-i64:64-i128:128-f80:128-n8:16:32:64-S128"
target triple = "x86_64-pc-linux-gnu"

%struct.H5C_class_t = type { i32, ptr, i32, i32, ptr, ptr, ptr, ptr, ptr, ptr, ptr, ptr, ptr, ptr }
%struct.H5F_t = type { ptr, ptr, ptr, ptr, i32, ptr, i8, i8, ptr, i32 }
%struct.H5F_shared_t = type { ptr, ptr, ptr, i8, i32, i32, %struct.H5F_mtab_t, ptr, i8, i8, i64, i32, i32, i64, i64, ptr, ptr, %struct.H5AC_cache_config_t, %struct.H5AC_cache_image_config_t, i8, i8, ptr, i64, i32, i8, i64, i64, double, i64, i64, i64, i32, i32, i32, i8, i32, ptr, ptr, ptr, ptr, i8, i8, i8, i64, ptr, ptr, i32, i64, i8, i32, i8, i64, i8, [13 x i32], [13 x i64], [13 x ptr], i8, i64, i64, [7 x i32], [7 x i32], %struct.H5F_blk_aggr_t, %struct.H5F_blk_aggr_t, i64, i64, %struct.H5F_meta_accum_t, i32, i32, [30 x ptr], %struct.H5F_object_flush_t, i8, ptr }
%struct.H5F_mtab_t = type { i32, i32, ptr }
%struct.H5AC_cache_config_t = type { i32, i8, i8, i8, [1025 x i8], i8, i8, i64, double, i64, i64, i64, i32, double, double, i8, i64, i32, double, double, i32, double, double, i8, i64, i32, i8, double, i64, i32 }
%struct.H5AC_cache_image_config_t = type { i32, i8, i8, i32 }
%struct.H5F_blk_aggr_t = type { i64, i64, i64, i64, i64 }
%struct.H5F_meta_accum_t = type { ptr, i64, i64, i64, i64, i64, i8 }
%struct.H5F_object_flush_t = type { ptr, ptr }
%struct.H5C_cache_image_ctl_t = type { i32, i8, i8, i32, i32 }
%struct.H5C_t = type { i8, ptr, ptr, i32, ptr, i64, i64, ptr, i8, ptr, i8, i8, i32, i64, [6 x i32], [6 x i64], i64, [6 x i64], i64, [6 x i64], [65536 x ptr], i32, i64, ptr, ptr, i64, ptr, ptr, i8, i8, i32, i64, [6 x i32], [6 x i64], ptr, i32, ptr, i8, i32, i32, i64, ptr, ptr, i32, i64, ptr, ptr, i32, i64, ptr, ptr, i8, i8, i64, i8, i8, i8, i8, i8, i8, %struct.H5C_auto_size_ctl_t, i32, [10 x i8], [11 x i32], i32, i32, i32, [10 x %struct.H5C_cache_entry_t], i64, i64, %struct.H5C_cache_image_ctl_t, i8, i8, i8, i8, i64, i64, i64, i64, i64, i64, i64, i32, ptr, ptr, i8, i8, [32 x i8] }
%struct.H5C_auto_size_ctl_t = type { i32, ptr, i8, i64, double, i64, i64, i64, i32, double, double, i8, i64, i32, double, double, i32, double, double, i8, i64, i32, i8, double }
%struct.H5C_cache_entry_t = type { ptr, i64, i64, ptr, i8, ptr, i8, i8, i8, i8, i32, i8, i8, i8, i8, i8, i32, ptr, i32, i32, i32, i32, i32, i8, i8, ptr, ptr, ptr, ptr, ptr, ptr, i8, i32, i8, i64, ptr, i64, i64, i32, i8, i32, i32, i8, ptr, ptr, ptr }
%struct.H5C_log_info_t = type { i8, i8, ptr, ptr }

@H5AC_init_g = global i8 0, align 1
@H5_libterm_g = external global i8, align 1
@.str = private unnamed_addr constant [98 x i8] c"generated/home/dtcxzyw/WorkSpace/Projects/compilers/llvm-opt-benchmark/bench/hdf5/hdf5/src/H5AC.c\00", align 1
@H5E_FUNC_g = external global i64, align 8
@H5E_CANTINIT_g = external global i64, align 8
@.str.1 = private unnamed_addr constant [32 x i8] c"interface initialization failed\00", align 1
@H5E_CACHE_g = external global i64, align 8
@H5E_LOGGING_g = external global i64, align 8
@.str.7 = private unnamed_addr constant [27 x i8] c"unable to emit log message\00", align 1
@__func__.H5AC_unprotect = private unnamed_addr constant [15 x i8] c"H5AC_unprotect\00", align 1
@H5E_CANTGETSIZE_g = external global i64, align 8
@.str.33 = private unnamed_addr constant [24 x i8] c"Can't get size of thing\00", align 1
@H5E_BADSIZE_g = external global i64, align 8
@.str.34 = private unnamed_addr constant [22 x i8] c"size of entry changed\00", align 1
@H5E_CANTUNPROTECT_g = external global i64, align 8
@.str.35 = private unnamed_addr constant [23 x i8] c"H5C_unprotect() failed\00", align 1

; Function Attrs: nounwind uwtable
define i32 @H5AC__init_package() #0 {
  %1 = load i8, ptr @H5AC_init_g, align 1, !tbaa !7, !range !9, !noundef !10
  %2 = trunc i8 %1 to i1
  br i1 %2, label %7, label %3

3:                                                ; preds = %0
  %4 = load i8, ptr @H5_libterm_g, align 1, !tbaa !7, !range !9, !noundef !10
  %5 = trunc i8 %4 to i1
  %6 = xor i1 %5, true
  br label %7

7:                                                ; preds = %3, %0
  %8 = phi i1 [ true, %0 ], [ %6, %3 ]
  %9 = xor i1 %8, true
  %10 = xor i1 %9, true
  %11 = zext i1 %10 to i32
  %12 = sext i32 %11 to i64
  %13 = call i64 @llvm.expect.i64(i64 %12, i64 1)
  %14 = icmp ne i64 %13, 0
  br i1 %14, label %15, label %16

15:                                               ; preds = %7
  br label %16

16:                                               ; preds = %15, %7
  ret i32 0
}

; Function Attrs: nounwind uwtable
define i32 @H5AC_unprotect(ptr noundef %0, ptr noundef %1, i64 noundef %2, ptr noundef %3, i32 noundef %4) #0 {
  %6 = alloca i32, align 4
  %7 = alloca ptr, align 8
  %8 = alloca ptr, align 8
  %9 = alloca i64, align 8
  %10 = alloca ptr, align 8
  %11 = alloca i32, align 4
  %12 = alloca i8, align 1
  %13 = alloca i8, align 1
  %14 = alloca i32, align 4
  %15 = alloca i8, align 1
  %16 = alloca i64, align 8
  %17 = alloca i32, align 4
  store ptr %0, ptr %7, align 8, !tbaa !13
  store ptr %1, ptr %8, align 8, !tbaa !78
  store i64 %2, ptr %9, align 8, !tbaa !11
  store ptr %3, ptr %10, align 8, !tbaa !84
  store i32 %4, ptr %11, align 4, !tbaa !3
  call void @llvm.lifetime.start.p0(i64 1, ptr %12) #6
  call void @llvm.lifetime.start.p0(i64 1, ptr %13) #6
  call void @llvm.lifetime.start.p0(i64 4, ptr %14) #6
  store i32 0, ptr %14, align 4, !tbaa !3
  call void @llvm.lifetime.start.p0(i64 1, ptr %15) #6
  store i8 0, ptr %15, align 1, !tbaa !7
  %18 = load i8, ptr @H5AC_init_g, align 1, !tbaa !7, !range !9, !noundef !10
  %19 = trunc i8 %18 to i1
  br i1 %19, label %24, label %20

20:                                               ; preds = %5
  %21 = load i8, ptr @H5_libterm_g, align 1, !tbaa !7, !range !9, !noundef !10
  %22 = trunc i8 %21 to i1
  %23 = xor i1 %22, true
  br label %24

24:                                               ; preds = %20, %5
  %25 = phi i1 [ false, %5 ], [ %23, %20 ]
  %26 = xor i1 %25, true
  %27 = xor i1 %26, true
  %28 = zext i1 %27 to i32
  %29 = sext i32 %28 to i64
  %30 = call i64 @llvm.expect.i64(i64 %29, i64 0)
  %31 = icmp ne i64 %30, 0
  br i1 %31, label %32, label %55

32:                                               ; preds = %24
  store i8 1, ptr @H5AC_init_g, align 1, !tbaa !7
  %33 = call i32 @H5AC__init_package()
  %34 = icmp slt i32 %33, 0
  br i1 %34, label %35, label %54

35:                                               ; preds = %32
  store i8 0, ptr @H5AC_init_g, align 1, !tbaa !7
  br label %36

36:                                               ; preds = %35
  br label %37

37:                                               ; preds = %36
  br label %38

38:                                               ; preds = %37
  %39 = load i64, ptr @H5E_FUNC_g, align 8, !tbaa !11
  %40 = load i64, ptr @H5E_CANTINIT_g, align 8, !tbaa !11
  %41 = call i32 (ptr, ptr, i32, i64, i64, ptr, ...) @H5E_printf_stack(ptr noundef @.str, ptr noundef @__func__.H5AC_unprotect, i32 noundef 1540, i64 noundef %39, i64 noundef %40, ptr noundef @.str.1)
  br label %42

42:                                               ; preds = %38
  br label %43

43:                                               ; preds = %42
  store i8 1, ptr %15, align 1, !tbaa !7
  %44 = load i8, ptr %15, align 1, !tbaa !7, !range !9, !noundef !10
  %45 = trunc i8 %44 to i1
  %46 = zext i1 %45 to i8
  store i8 %46, ptr %15, align 1, !tbaa !7
  br label %47

47:                                               ; preds = %43
  br label %48

48:                                               ; preds = %47
  br label %49

49:                                               ; preds = %48
  store i32 -1, ptr %14, align 4, !tbaa !3
  br label %173

50:                                               ; No predecessors!
  br label %51

51:                                               ; preds = %50
  br label %52

52:                                               ; preds = %51
  br label %53

53:                                               ; preds = %52
  br label %54

54:                                               ; preds = %53, %32
  br label %55

55:                                               ; preds = %54, %24
  %56 = load i8, ptr @H5AC_init_g, align 1, !tbaa !7, !range !9, !noundef !10
  %57 = trunc i8 %56 to i1
  br i1 %57, label %62, label %58

58:                                               ; preds = %55
  %59 = load i8, ptr @H5_libterm_g, align 1, !tbaa !7, !range !9, !noundef !10
  %60 = trunc i8 %59 to i1
  %61 = xor i1 %60, true
  br label %62

62:                                               ; preds = %58, %55
  %63 = phi i1 [ true, %55 ], [ %61, %58 ]
  %64 = xor i1 %63, true
  %65 = xor i1 %64, true
  %66 = zext i1 %65 to i32
  %67 = sext i32 %66 to i64
  %68 = call i64 @llvm.expect.i64(i64 %67, i64 1)
  %69 = icmp ne i64 %68, 0
  br i1 %69, label %70, label %216

70:                                               ; preds = %62
  %71 = load i32, ptr %11, align 4, !tbaa !3
  %72 = and i32 %71, 2
  %73 = icmp eq i32 %72, 2
  br i1 %73, label %79, label %74

74:                                               ; preds = %70
  %75 = load ptr, ptr %10, align 8, !tbaa !84
  %76 = getelementptr inbounds nuw %struct.H5C_cache_entry_t, ptr %75, i32 0, i32 7
  %77 = load i8, ptr %76, align 1, !tbaa !91, !range !9, !noundef !10
  %78 = trunc i8 %77 to i1
  br label %79

79:                                               ; preds = %74, %70
  %80 = phi i1 [ true, %70 ], [ %78, %74 ]
  %81 = zext i1 %80 to i8
  store i8 %81, ptr %12, align 1, !tbaa !7
  %82 = load i32, ptr %11, align 4, !tbaa !3
  %83 = and i32 %82, 1
  %84 = icmp eq i32 %83, 1
  %85 = zext i1 %84 to i8
  store i8 %85, ptr %13, align 1, !tbaa !7
  %86 = load i8, ptr %12, align 1, !tbaa !7, !range !9, !noundef !10
  %87 = trunc i8 %86 to i1
  br i1 %87, label %88, label %146

88:                                               ; preds = %79
  %89 = load i8, ptr %13, align 1, !tbaa !7, !range !9, !noundef !10
  %90 = trunc i8 %89 to i1
  br i1 %90, label %146, label %91

91:                                               ; preds = %88
  call void @llvm.lifetime.start.p0(i64 8, ptr %16) #6
  store i64 0, ptr %16, align 8, !tbaa !11
  %92 = load ptr, ptr %8, align 8, !tbaa !78
  %93 = getelementptr inbounds nuw %struct.H5C_class_t, ptr %92, i32 0, i32 8
  %94 = load ptr, ptr %93, align 8, !tbaa !92
  %95 = load ptr, ptr %10, align 8, !tbaa !84
  %96 = call i32 %94(ptr noundef %95, ptr noundef %16)
  %97 = icmp slt i32 %96, 0
  br i1 %97, label %98, label %117

98:                                               ; preds = %91
  br label %99

99:                                               ; preds = %98
  br label %100

100:                                              ; preds = %99
  br label %101

101:                                              ; preds = %100
  %102 = load i64, ptr @H5E_CACHE_g, align 8, !tbaa !11
  %103 = load i64, ptr @H5E_CANTGETSIZE_g, align 8, !tbaa !11
  %104 = call i32 (ptr, ptr, i32, i64, i64, ptr, ...) @H5E_printf_stack(ptr noundef @.str, ptr noundef @__func__.H5AC_unprotect, i32 noundef 1565, i64 noundef %102, i64 noundef %103, ptr noundef @.str.33)
  br label %105

105:                                              ; preds = %101
  br label %106

106:                                              ; preds = %105
  store i8 1, ptr %15, align 1, !tbaa !7
  %107 = load i8, ptr %15, align 1, !tbaa !7, !range !9, !noundef !10
  %108 = trunc i8 %107 to i1
  %109 = zext i1 %108 to i8
  store i8 %109, ptr %15, align 1, !tbaa !7
  br label %110

110:                                              ; preds = %106
  br label %111

111:                                              ; preds = %110
  br label %112

112:                                              ; preds = %111
  store i32 -1, ptr %14, align 4, !tbaa !3
  store i32 10, ptr %17, align 4
  br label %143

113:                                              ; No predecessors!
  br label %114

114:                                              ; preds = %113
  br label %115

115:                                              ; preds = %114
  br label %116

116:                                              ; preds = %115
  br label %117

117:                                              ; preds = %116, %91
  %118 = load ptr, ptr %10, align 8, !tbaa !84
  %119 = getelementptr inbounds nuw %struct.H5C_cache_entry_t, ptr %118, i32 0, i32 2
  %120 = load i64, ptr %119, align 8, !tbaa !85
  %121 = load i64, ptr %16, align 8, !tbaa !11
  %122 = icmp ne i64 %120, %121
  br i1 %122, label %123, label %142

123:                                              ; preds = %117
  br label %124

124:                                              ; preds = %123
  br label %125

125:                                              ; preds = %124
  br label %126

126:                                              ; preds = %125
  %127 = load i64, ptr @H5E_CACHE_g, align 8, !tbaa !11
  %128 = load i64, ptr @H5E_BADSIZE_g, align 8, !tbaa !11
  %129 = call i32 (ptr, ptr, i32, i64, i64, ptr, ...) @H5E_printf_stack(ptr noundef @.str, ptr noundef @__func__.H5AC_unprotect, i32 noundef 1568, i64 noundef %127, i64 noundef %128, ptr noundef @.str.34)
  br label %130

130:                                              ; preds = %126
  br label %131

131:                                              ; preds = %130
  store i8 1, ptr %15, align 1, !tbaa !7
  %132 = load i8, ptr %15, align 1, !tbaa !7, !range !9, !noundef !10
  %133 = trunc i8 %132 to i1
  %134 = zext i1 %133 to i8
  store i8 %134, ptr %15, align 1, !tbaa !7
  br label %135

135:                                              ; preds = %131
  br label %136

136:                                              ; preds = %135
  br label %137

137:                                              ; preds = %136
  store i32 -1, ptr %14, align 4, !tbaa !3
  store i32 10, ptr %17, align 4
  br label %143

138:                                              ; No predecessors!
  br label %139

139:                                              ; preds = %138
  br label %140

140:                                              ; preds = %139
  br label %141

141:                                              ; preds = %140
  br label %142

142:                                              ; preds = %141, %117
  store i32 0, ptr %17, align 4
  br label %143

143:                                              ; preds = %137, %112, %142
  call void @llvm.lifetime.end.p0(i64 8, ptr %16) #6
  %144 = load i32, ptr %17, align 4
  switch i32 %144, label %218 [
    i32 0, label %145
    i32 10, label %173
  ]

145:                                              ; preds = %143
  br label %146

146:                                              ; preds = %145, %88, %79
  %147 = load ptr, ptr %7, align 8, !tbaa !13
  %148 = load i64, ptr %9, align 8, !tbaa !11
  %149 = load ptr, ptr %10, align 8, !tbaa !84
  %150 = load i32, ptr %11, align 4, !tbaa !3
  %151 = call i32 @H5C_unprotect(ptr noundef %147, i64 noundef %148, ptr noundef %149, i32 noundef %150)
  %152 = icmp slt i32 %151, 0
  br i1 %152, label %153, label %172

153:                                              ; preds = %146
  br label %154

154:                                              ; preds = %153
  br label %155

155:                                              ; preds = %154
  br label %156

156:                                              ; preds = %155
  %157 = load i64, ptr @H5E_CACHE_g, align 8, !tbaa !11
  %158 = load i64, ptr @H5E_CANTUNPROTECT_g, align 8, !tbaa !11
  %159 = call i32 (ptr, ptr, i32, i64, i64, ptr, ...) @H5E_printf_stack(ptr noundef @.str, ptr noundef @__func__.H5AC_unprotect, i32 noundef 1589, i64 noundef %157, i64 noundef %158, ptr noundef @.str.35)
  br label %160

160:                                              ; preds = %156
  br label %161

161:                                              ; preds = %160
  store i8 1, ptr %15, align 1, !tbaa !7
  %162 = load i8, ptr %15, align 1, !tbaa !7, !range !9, !noundef !10
  %163 = trunc i8 %162 to i1
  %164 = zext i1 %163 to i8
  store i8 %164, ptr %15, align 1, !tbaa !7
  br label %165

165:                                              ; preds = %161
  br label %166

166:                                              ; preds = %165
  br label %167

167:                                              ; preds = %166
  store i32 -1, ptr %14, align 4, !tbaa !3
  br label %173

168:                                              ; No predecessors!
  br label %169

169:                                              ; preds = %168
  br label %170

170:                                              ; preds = %169
  br label %171

171:                                              ; preds = %170
  br label %172

172:                                              ; preds = %171, %146
  br label %173

173:                                              ; preds = %172, %143, %167, %49
  %174 = load ptr, ptr %7, align 8, !tbaa !13
  %175 = getelementptr inbounds nuw %struct.H5F_t, ptr %174, i32 0, i32 2
  %176 = load ptr, ptr %175, align 8, !tbaa !16
  %177 = getelementptr inbounds nuw %struct.H5F_shared_t, ptr %176, i32 0, i32 16
  %178 = load ptr, ptr %177, align 8, !tbaa !22
  %179 = getelementptr inbounds nuw %struct.H5C_t, ptr %178, i32 0, i32 1
  %180 = load ptr, ptr %179, align 8, !tbaa !56
  %181 = getelementptr inbounds nuw %struct.H5C_log_info_t, ptr %180, i32 0, i32 1
  %182 = load i8, ptr %181, align 1, !tbaa !64, !range !9, !noundef !10
  %183 = trunc i8 %182 to i1
  br i1 %183, label %184, label %215

184:                                              ; preds = %173
  %185 = load ptr, ptr %7, align 8, !tbaa !13
  %186 = getelementptr inbounds nuw %struct.H5F_t, ptr %185, i32 0, i32 2
  %187 = load ptr, ptr %186, align 8, !tbaa !16
  %188 = getelementptr inbounds nuw %struct.H5F_shared_t, ptr %187, i32 0, i32 16
  %189 = load ptr, ptr %188, align 8, !tbaa !22
  %190 = load i64, ptr %9, align 8, !tbaa !11
  %191 = load ptr, ptr %8, align 8, !tbaa !78
  %192 = getelementptr inbounds nuw %struct.H5C_class_t, ptr %191, i32 0, i32 0
  %193 = load i32, ptr %192, align 8, !tbaa !80
  %194 = load i32, ptr %11, align 4, !tbaa !3
  %195 = load i32, ptr %14, align 4, !tbaa !3
  %196 = call i32 @H5C_log_write_unprotect_entry_msg(ptr noundef %189, i64 noundef %190, i32 noundef %193, i32 noundef %194, i32 noundef %195)
  %197 = icmp slt i32 %196, 0
  br i1 %197, label %198, label %214

198:                                              ; preds = %184
  br label %199

199:                                              ; preds = %198
  br label %200

200:                                              ; preds = %199
  br label %201

201:                                              ; preds = %200
  %202 = load i64, ptr @H5E_CACHE_g, align 8, !tbaa !11
  %203 = load i64, ptr @H5E_LOGGING_g, align 8, !tbaa !11
  %204 = call i32 (ptr, ptr, i32, i64, i64, ptr, ...) @H5E_printf_stack(ptr noundef @.str, ptr noundef @__func__.H5AC_unprotect, i32 noundef 1602, i64 noundef %202, i64 noundef %203, ptr noundef @.str.7)
  br label %205

205:                                              ; preds = %201
  br label %206

206:                                              ; preds = %205
  store i8 1, ptr %15, align 1, !tbaa !7
  %207 = load i8, ptr %15, align 1, !tbaa !7, !range !9, !noundef !10
  %208 = trunc i8 %207 to i1
  %209 = zext i1 %208 to i8
  store i8 %209, ptr %15, align 1, !tbaa !7
  br label %210

210:                                              ; preds = %206
  br label %211

211:                                              ; preds = %210
  store i32 -1, ptr %14, align 4, !tbaa !3
  br label %212

212:                                              ; preds = %211
  br label %213

213:                                              ; preds = %212
  br label %214

214:                                              ; preds = %213, %184
  br label %215

215:                                              ; preds = %214, %173
  br label %216

216:                                              ; preds = %215, %62
  %217 = load i32, ptr %14, align 4, !tbaa !3
  store i32 %217, ptr %6, align 4
  store i32 1, ptr %17, align 4
  br label %218

218:                                              ; preds = %216, %143
  call void @llvm.lifetime.end.p0(i64 1, ptr %15) #6
  call void @llvm.lifetime.end.p0(i64 4, ptr %14) #6
  call void @llvm.lifetime.end.p0(i64 1, ptr %13) #6
  call void @llvm.lifetime.end.p0(i64 1, ptr %12) #6
  %219 = load i32, ptr %6, align 4
  ret i32 %219
}